target datalayout = "e-m:e-p270:32:32-p271:32:32-p272:64:64-i64:64-i128:128-f80:128-n8:16:32:64-S128"
target triple = "x86_64-pc-linux-gnu"

%struct.JNINativeInterface_ = type { ptr, ptr, ptr, ptr, ptr, ptr, ptr, ptr, ptr, ptr, ptr, ptr, ptr, ptr, ptr, ptr, ptr, ptr, ptr, ptr, ptr, ptr, ptr, ptr, ptr, ptr, ptr, ptr, ptr, ptr, ptr, ptr, ptr, ptr, ptr, ptr, ptr, ptr, ptr, ptr, ptr, ptr, ptr, ptr, ptr, ptr, ptr, ptr, ptr, ptr, ptr, ptr, ptr, ptr, ptr, ptr, ptr, ptr, ptr, ptr, ptr, ptr, ptr, ptr, ptr, ptr, ptr, ptr, ptr, ptr, ptr, ptr, ptr, ptr, ptr, ptr, ptr, ptr, ptr, ptr, ptr, ptr, ptr, ptr, ptr, ptr, ptr, ptr, ptr, ptr, ptr, ptr, ptr, ptr, ptr, ptr, ptr, ptr, ptr, ptr, ptr, ptr, ptr, ptr, ptr, ptr, ptr, ptr, ptr, ptr, ptr, ptr, ptr, ptr, ptr, ptr, ptr, ptr, ptr, ptr, ptr, ptr, ptr, ptr, ptr, ptr, ptr, ptr, ptr, ptr, ptr, ptr, ptr, ptr, ptr, ptr, ptr, ptr, ptr, ptr, ptr, ptr, ptr, ptr, ptr, ptr, ptr, ptr, ptr, ptr, ptr, ptr, ptr, ptr, ptr, ptr, ptr, ptr, ptr, ptr, ptr, ptr, ptr, ptr, ptr, ptr, ptr, ptr, ptr, ptr, ptr, ptr, ptr, ptr, ptr, ptr, ptr, ptr, ptr, ptr, ptr, ptr, ptr, ptr, ptr, ptr, ptr, ptr, ptr, ptr, ptr, ptr, ptr, ptr, ptr, ptr, ptr, ptr, ptr, ptr, ptr, ptr, ptr, ptr, ptr, ptr, ptr, ptr, ptr, ptr, ptr, ptr, ptr, ptr, ptr, ptr, ptr, ptr, ptr, ptr, ptr, ptr, ptr, ptr, ptr, ptr, ptr, ptr, ptr, ptr, ptr, ptr, ptr, ptr, ptr }
%struct.CK_ATTRIBUTE = type { i64, ptr, i64 }

@.str.5 = private unnamed_addr constant [27 x i8] c"java/lang/OutOfMemoryError\00", align 1

; Function Attrs: nounwind uwtable
define internal void @throwByName(ptr noundef %0, ptr noundef %1, ptr noundef %2) #0 {
  %4 = alloca ptr, align 8
  %5 = alloca ptr, align 8
  %6 = alloca ptr, align 8
  %7 = alloca ptr, align 8
  store ptr %0, ptr %4, align 8
  store ptr %1, ptr %5, align 8
  store ptr %2, ptr %6, align 8
  %8 = load ptr, ptr %4, align 8
  %9 = load ptr, ptr %8, align 8
  %10 = getelementptr inbounds %struct.JNINativeInterface_, ptr %9, i32 0, i32 6
  %11 = load ptr, ptr %10, align 8
  %12 = load ptr, ptr %4, align 8
  %13 = load ptr, ptr %5, align 8
  %14 = call ptr %11(ptr noundef %12, ptr noundef %13)
  store ptr %14, ptr %7, align 8
  %15 = load ptr, ptr %7, align 8
  %16 = icmp ne ptr %15, null
  br i1 %16, label %17, label %26

17:                                               ; preds = %3
  %18 = load ptr, ptr %4, align 8
  %19 = load ptr, ptr %18, align 8
  %20 = getelementptr inbounds %struct.JNINativeInterface_, ptr %19, i32 0, i32 14
  %21 = load ptr, ptr %20, align 8
  %22 = load ptr, ptr %4, align 8
  %23 = load ptr, ptr %7, align 8
  %24 = load ptr, ptr %6, align 8
  %25 = call i32 %21(ptr noundef %22, ptr noundef %23, ptr noundef %24)
  br label %26

26:                                               ; preds = %17, %3
  ret void
}

; Function Attrs: nounwind uwtable
define hidden void @freeCKAttributeArray(ptr noundef %0, i32 noundef %1) #0 {
  %3 = alloca ptr, align 8
  %4 = alloca i32, align 4
  %5 = alloca i32, align 4
  store ptr %0, ptr %3, align 8
  store i32 %1, ptr %4, align 4
  %6 = load ptr, ptr %3, align 8
  %7 = icmp ne ptr %6, null
  br i1 %7, label %8, label %34

8:                                                ; preds = %2
  store i32 0, ptr %5, align 4
  br label %9

9:                                                ; preds = %29, %8
  %10 = load i32, ptr %5, align 4
  %11 = load i32, ptr %4, align 4
  %12 = icmp slt i32 %10, %11
  br i1 %12, label %13, label %32

13:                                               ; preds = %9
  %14 = load ptr, ptr %3, align 8
  %15 = load i32, ptr %5, align 4
  %16 = sext i32 %15 to i64
  %17 = getelementptr inbounds %struct.CK_ATTRIBUTE, ptr %14, i64 %16
  %18 = getelementptr inbounds %struct.CK_ATTRIBUTE, ptr %17, i32 0, i32 1
  %19 = load ptr, ptr %18, align 8
  %20 = icmp ne ptr %19, null
  br i1 %20, label %21, label %28

21:                                               ; preds = %13
  %22 = load ptr, ptr %3, align 8
  %23 = load i32, ptr %5, align 4
  %24 = sext i32 %23 to i64
  %25 = getelementptr inbounds %struct.CK_ATTRIBUTE, ptr %22, i64 %24
  %26 = getelementptr inbounds %struct.CK_ATTRIBUTE, ptr %25, i32 0, i32 1
  %27 = load ptr, ptr %26, align 8
  call void @free(ptr noundef %27) #9
  br label %28

28:                                               ; preds = %21, %13
  br label %29

29:                                               ; preds = %28
  %30 = load i32, ptr %5, align 4
  %31 = add nsw i32 %30, 1
  store i32 %31, ptr %5, align 4
  br label %9, !llvm.loop !6

32:                                               ; preds = %9
  %33 = load ptr, ptr %3, align 8
  call void @free(ptr noundef %33) #9
  br label %34

34:                                               ; preds = %32, %2
  ret void
}

; Function Attrs: nounwind uwtable
define hidden void @p11ThrowOutOfMemoryError(ptr noundef %0, ptr noundef %1) #0 {
  %3 = alloca ptr, align 8
  %4 = alloca ptr, align 8
  store ptr %0, ptr %3, align 8
  store ptr %1, ptr %4, align 8
  %5 = load ptr, ptr %3, align 8
  %6 = load ptr, ptr %4, align 8
  call void @throwByName(ptr noundef %5, ptr noundef @.str.5, ptr noundef %6)
  ret void
}

; Function Attrs: nounwind uwtable
define hidden void @jAttributeArrayToCKAttributeArray(ptr noundef %0, ptr noundef %1, ptr noundef %2, ptr noundef %3) #0 {
  %5 = alloca ptr, align 8
  %6 = alloca ptr, align 8
  %7 = alloca ptr, align 8
  %8 = alloca ptr, align 8
  %9 = alloca i64, align 8
  %10 = alloca i64, align 8
  %11 = alloca ptr, align 8
  %12 = alloca %struct.CK_ATTRIBUTE, align 8
  store ptr %0, ptr %5, align 8
  store ptr %1, ptr %6, align 8
  store ptr %2, ptr %7, align 8
  store ptr %3, ptr %8, align 8
  %13 = load ptr, ptr %6, align 8
  %14 = icmp eq ptr %13, null
  br i1 %14, label %15, label %18

15:                                               ; preds = %4
  %16 = load ptr, ptr %7, align 8
  store ptr null, ptr %16, align 8
  %17 = load ptr, ptr %8, align 8
  store i64 0, ptr %17, align 8
  br label %93

18:                                               ; preds = %4
  %19 = load ptr, ptr %5, align 8
  %20 = load ptr, ptr %19, align 8
  %21 = getelementptr inbounds %struct.JNINativeInterface_, ptr %20, i32 0, i32 171
  %22 = load ptr, ptr %21, align 8
  %23 = load ptr, ptr %5, align 8
  %24 = load ptr, ptr %6, align 8
  %25 = call i32 %22(ptr noundef %23, ptr noundef %24)
  %26 = sext i32 %25 to i64
  store i64 %26, ptr %10, align 8
  %27 = load i64, ptr %10, align 8
  %28 = load ptr, ptr %8, align 8
  store i64 %27, ptr %28, align 8
  %29 = load ptr, ptr %8, align 8
  %30 = load i64, ptr %29, align 8
  %31 = call noalias ptr @calloc(i64 noundef %30, i64 noundef 24) #10
  %32 = load ptr, ptr %7, align 8
  store ptr %31, ptr %32, align 8
  %33 = load ptr, ptr %7, align 8
  %34 = load ptr, ptr %33, align 8
  %35 = icmp eq ptr %34, null
  br i1 %35, label %36, label %42

36:                                               ; preds = %18
  %37 = load ptr, ptr %8, align 8
  %38 = load i64, ptr %37, align 8
  %39 = icmp ne i64 %38, 0
  br i1 %39, label %40, label %42

40:                                               ; preds = %36
  %41 = load ptr, ptr %5, align 8
  call void @p11ThrowOutOfMemoryError(ptr noundef %41, ptr noundef null)
  br label %93

42:                                               ; preds = %36, %18
  store i64 0, ptr %9, align 8
  br label %43

43:                                               ; preds = %90, %42
  %44 = load i64, ptr %9, align 8
  %45 = load ptr, ptr %8, align 8
  %46 = load i64, ptr %45, align 8
  %47 = icmp ult i64 %44, %46
  br i1 %47, label %48, label %93

48:                                               ; preds = %43
  %49 = load ptr, ptr %5, align 8
  %50 = load ptr, ptr %49, align 8
  %51 = getelementptr inbounds %struct.JNINativeInterface_, ptr %50, i32 0, i32 173
  %52 = load ptr, ptr %51, align 8
  %53 = load ptr, ptr %5, align 8
  %54 = load ptr, ptr %6, align 8
  %55 = load i64, ptr %9, align 8
  %56 = trunc i64 %55 to i32
  %57 = call ptr %52(ptr noundef %53, ptr noundef %54, i32 noundef %56)
  store ptr %57, ptr %11, align 8
  %58 = load ptr, ptr %5, align 8
  %59 = load ptr, ptr %58, align 8
  %60 = getelementptr inbounds %struct.JNINativeInterface_, ptr %59, i32 0, i32 228
  %61 = load ptr, ptr %60, align 8
  %62 = load ptr, ptr %5, align 8
  %63 = call zeroext i8 %61(ptr noundef %62)
  %64 = icmp ne i8 %63, 0
  br i1 %64, label %65, label %70

65:                                               ; preds = %48
  %66 = load ptr, ptr %7, align 8
  %67 = load ptr, ptr %66, align 8
  %68 = load i64, ptr %9, align 8
  %69 = trunc i64 %68 to i32
  call void @freeCKAttributeArray(ptr noundef %67, i32 noundef %69)
  br label %93

70:                                               ; preds = %48
  %71 = load ptr, ptr %7, align 8
  %72 = load ptr, ptr %71, align 8
  %73 = load i64, ptr %9, align 8
  %74 = getelementptr inbounds %struct.CK_ATTRIBUTE, ptr %72, i64 %73
  %75 = load ptr, ptr %5, align 8
  %76 = load ptr, ptr %11, align 8
  call void @jAttributeToCKAttribute(ptr dead_on_unwind writable sret(%struct.CK_ATTRIBUTE) align 8 %12, ptr noundef %75, ptr noundef %76)
  call void @llvm.memcpy.p0.p0.i64(ptr align 8 %74, ptr align 8 %12, i64 24, i1 false)
  %77 = load ptr, ptr %5, align 8
  %78 = load ptr, ptr %77, align 8
  %79 = getelementptr inbounds %struct.JNINativeInterface_, ptr %78, i32 0, i32 228
  %80 = load ptr, ptr %79, align 8
  %81 = load ptr, ptr %5, align 8
  %82 = call zeroext i8 %80(ptr noundef %81)
  %83 = icmp ne i8 %82, 0
  br i1 %83, label %84, label %89

84:                                               ; preds = %70
  %85 = load ptr, ptr %7, align 8
  %86 = load ptr, ptr %85, align 8
  %87 = load i64, ptr %9, align 8
  %88 = trunc i64 %87 to i32
  call void @freeCKAttributeArray(ptr noundef %86, i32 noundef %88)
  br label %93

89:                                               ; preds = %70
  br label %90

90:                                               ; preds = %89
  %91 = load i64, ptr %9, align 8
  %92 = add i64 %91, 1
  store i64 %92, ptr %9, align 8
  br label %43, !llvm.loop !12

93:                                               ; preds = %84, %65, %43, %40, %15
  ret void
}