; Function Attrs: nounwind uwtable
define hidden void @jAttributeArrayToCKAttributeArray(ptr noundef %0, ptr noundef %1, ptr nocapture noundef %2, ptr nocapture noundef %3) local_unnamed_addr #0 {
  %5 = alloca %struct.CK_ATTRIBUTE, align 8
  %6 = icmp eq ptr %1, null
  br i1 %6, label %7, label %8

7:                                                ; preds = %4
  store ptr null, ptr %2, align 8
  store i64 0, ptr %3, align 8
  br label %p11ThrowOutOfMemoryError.exit

8:                                                ; preds = %4
  %9 = load ptr, ptr %0, align 8
  %10 = getelementptr inbounds i8, ptr %9, i64 1368
  %11 = load ptr, ptr %10, align 8
  %12 = tail call i32 %11(ptr noundef nonnull %0, ptr noundef nonnull %1) #15
  %13 = sext i32 %12 to i64
  store i64 %13, ptr %3, align 8
  %14 = tail call noalias ptr @calloc(i64 noundef %13, i64 noundef 24) #16
  store ptr %14, ptr %2, align 8
  %15 = icmp eq ptr %14, null
  %.pre = load i64, ptr %3, align 8
  %.not = icmp eq i64 %.pre, 0
  br i1 %15, label %16, label %27

16:                                               ; preds = %8
  br i1 %.not, label %p11ThrowOutOfMemoryError.exit, label %17

17:                                               ; preds = %16
  %18 = load ptr, ptr %0, align 8
  %19 = getelementptr inbounds i8, ptr %18, i64 48
  %20 = load ptr, ptr %19, align 8
  %21 = tail call ptr %20(ptr noundef nonnull %0, ptr noundef nonnull @.str.5) #15
  %.not.i.i = icmp eq ptr %21, null
  br i1 %.not.i.i, label %p11ThrowOutOfMemoryError.exit, label %22

22:                                               ; preds = %17
  %23 = load ptr, ptr %0, align 8
  %24 = getelementptr inbounds i8, ptr %23, i64 112
  %25 = load ptr, ptr %24, align 8
  %26 = tail call i32 %25(ptr noundef nonnull %0, ptr noundef nonnull %21, ptr noundef null) #15
  br label %p11ThrowOutOfMemoryError.exit

27:                                               ; preds = %8
  br i1 %.not, label %p11ThrowOutOfMemoryError.exit, label %.lr.ph

.lr.ph:                                           ; preds = %27, %57
  %.048 = phi i64 [ %58, %57 ], [ 0, %27 ]
  %28 = load ptr, ptr %0, align 8
  %29 = getelementptr inbounds i8, ptr %28, i64 1384
  %30 = load ptr, ptr %29, align 8
  %31 = trunc i64 %.048 to i32
  %32 = call ptr %30(ptr noundef nonnull %0, ptr noundef nonnull %1, i32 noundef %31) #15
  %33 = load ptr, ptr %0, align 8
  %34 = getelementptr inbounds i8, ptr %33, i64 1824
  %35 = load ptr, ptr %34, align 8
  %36 = call zeroext i8 %35(ptr noundef nonnull %0) #15
  %.not32 = icmp eq i8 %36, 0
  %37 = load ptr, ptr %2, align 8
  br i1 %.not32, label %44, label %38

38:                                               ; preds = %.lr.ph
  %.not.i = icmp eq ptr %37, null
  br i1 %.not.i, label %p11ThrowOutOfMemoryError.exit, label %.preheader.i

.preheader.i:                                     ; preds = %38
  %39 = icmp sgt i32 %31, 0
  br i1 %39, label %.lr.ph.preheader.i, label %._crit_edge.i

.lr.ph.preheader.i:                               ; preds = %.preheader.i
  %wide.trip.count.i = and i64 %.048, 2147483647
  br label %.lr.ph.i

.lr.ph.i:                                         ; preds = %43, %.lr.ph.preheader.i
  %indvars.iv.i = phi i64 [ 0, %.lr.ph.preheader.i ], [ %indvars.iv.next.i, %43 ]
  %40 = getelementptr inbounds %struct.CK_ATTRIBUTE, ptr %37, i64 %indvars.iv.i, i32 1
  %41 = load ptr, ptr %40, align 8
  %.not10.i = icmp eq ptr %41, null
  br i1 %.not10.i, label %43, label %42

42:                                               ; preds = %.lr.ph.i
  call void @free(ptr noundef nonnull %41) #15
  br label %43

43:                                               ; preds = %42, %.lr.ph.i
  %indvars.iv.next.i = add nuw nsw i64 %indvars.iv.i, 1
  %exitcond.not.i = icmp eq i64 %indvars.iv.next.i, %wide.trip.count.i
  br i1 %exitcond.not.i, label %._crit_edge.i, label %.lr.ph.i, !llvm.loop !6

._crit_edge.i:                                    ; preds = %43, %.preheader.i
  call void @free(ptr noundef nonnull %37) #15
  br label %p11ThrowOutOfMemoryError.exit

44:                                               ; preds = %.lr.ph
  %45 = getelementptr inbounds %struct.CK_ATTRIBUTE, ptr %37, i64 %.048
  call void @jAttributeToCKAttribute(ptr dead_on_unwind nonnull writable sret(%struct.CK_ATTRIBUTE) align 8 %5, ptr noundef nonnull %0, ptr noundef %32) #15
  call void @llvm.memcpy.p0.p0.i64(ptr noundef nonnull align 8 dereferenceable(24) %45, ptr noundef nonnull align 8 dereferenceable(24) %5, i64 24, i1 false)
  %46 = load ptr, ptr %0, align 8
  %47 = getelementptr inbounds i8, ptr %46, i64 1824
  %48 = load ptr, ptr %47, align 8
  %49 = call zeroext i8 %48(ptr noundef nonnull %0) #15
  %.not33 = icmp eq i8 %49, 0
  br i1 %.not33, label %57, label %50

50:                                               ; preds = %44
  %51 = load ptr, ptr %2, align 8
  %.not.i34 = icmp eq ptr %51, null
  br i1 %.not.i34, label %p11ThrowOutOfMemoryError.exit, label %.preheader.i35

.preheader.i35:                                   ; preds = %50
  %52 = icmp sgt i32 %31, 0
  br i1 %52, label %.lr.ph.preheader.i37, label %._crit_edge.i36

.lr.ph.preheader.i37:                             ; preds = %.preheader.i35
  %wide.trip.count.i38 = and i64 %.048, 2147483647
  br label %.lr.ph.i39

.lr.ph.i39:                                       ; preds = %56, %.lr.ph.preheader.i37
  %indvars.iv.i40 = phi i64 [ 0, %.lr.ph.preheader.i37 ], [ %indvars.iv.next.i42, %56 ]
  %53 = getelementptr inbounds %struct.CK_ATTRIBUTE, ptr %51, i64 %indvars.iv.i40, i32 1
  %54 = load ptr, ptr %53, align 8
  %.not10.i41 = icmp eq ptr %54, null
  br i1 %.not10.i41, label %56, label %55

55:                                               ; preds = %.lr.ph.i39
  call void @free(ptr noundef nonnull %54) #15
  br label %56

56:                                               ; preds = %55, %.lr.ph.i39
  %indvars.iv.next.i42 = add nuw nsw i64 %indvars.iv.i40, 1
  %exitcond.not.i43 = icmp eq i64 %indvars.iv.next.i42, %wide.trip.count.i38
  br i1 %exitcond.not.i43, label %._crit_edge.i36, label %.lr.ph.i39, !llvm.loop !6

._crit_edge.i36:                                  ; preds = %56, %.preheader.i35
  call void @free(ptr noundef nonnull %51) #15
  br label %p11ThrowOutOfMemoryError.exit

57:                                               ; preds = %44
  %58 = add nuw i64 %.048, 1
  %59 = load i64, ptr %3, align 8
  %60 = icmp ult i64 %58, %59
  br i1 %60, label %.lr.ph, label %p11ThrowOutOfMemoryError.exit, !llvm.loop !12

p11ThrowOutOfMemoryError.exit:                    ; preds = %57, %16, %27, %._crit_edge.i36, %50, %._crit_edge.i, %38, %22, %17, %7
  ret void
}